(lp0
(dp1
S'levenshtein_dist'
p2
I564
sS'percent_match'
p3
F52.04081632653062
sS'length_item'
p4
I1176
sS'rev_flag'
p5
I0
sS'start'
p6
I822
sS'length_nitrogenase'
p7
I876
sS'end'
p8
I1176
sa(dp9
g2
I425
sg3
F51.48401826484018
sg4
I876
sg5
I0
sg6
I741
sg7
I876
sg8
I876
sa(dp10
g2
I585
sg3
F51.61290322580645
sg4
I1209
sg5
I0
sg6
I402
sg7
I876
sg8
I1209
sa(dp11
g2
I713
sg3
F49.21652421652421
sg4
I1404
sg5
I0
sg6
I147
sg7
I876
sg8
I1404
sa(dp12
g2
I471
sg3
F52.42424242424243
sg4
I990
sg5
I0
sg6
I81
sg7
I876
sg8
I990
sa(dp13
g2
I1181
sg3
F39.71413986727922
sg4
I1959
sg5
I0
sg6
I57
sg7
I876
sg8
I1959
sa(dp14
g2
I1545
sg3
F34.89254108723136
sg4
I2373
sg5
I0
sg6
I48
sg7
I876
sg8
I2373
sa(dp15
g2
I428
sg3
F45.12820512820513
sg4
I780
sg5
I0
sg6
I510
sg7
I876
sg8
I780
sa(dp16
g2
I675
sg3
F49.776785714285715
sg4
I1344
sg5
I0
sg6
I72
sg7
I876
sg8
I1344
sa(dp17
g2
I530
sg3
F52.12285456187895
sg4
I1107
sg5
I0
sg6
I291
sg7
I876
sg8
I1107
sa(dp18
g2
I405
sg3
F43.75
sg4
I720
sg5
I0
sg6
I24
sg7
I876
sg8
I720
sa(dp19
g2
I499
sg3
F53.14553990610329
sg4
I1065
sg5
I0
sg6
I210
sg7
I876
sg8
I1065
sa(dp20
g2
I545
sg3
F51.55555555555556
sg4
I1125
sg5
I0
sg6
I51
sg7
I876
sg8
I1125
sa(dp21
g2
I1423
sg3
F36.67111704494882
sg4
I2247
sg5
I0
sg6
I114
sg7
I876
sg8
I2247
sa(dp22
g2
I399
sg3
F50.92250922509225
sg4
I813
sg5
I0
sg6
I1356
sg7
I876
sg8
I813
sa(dp23
g2
I418
sg3
F48.77450980392157
sg4
I816
sg5
I0
sg6
I2379
sg7
I876
sg8
I816
sa(dp24
g2
I587
sg3
F50.96073517126148
sg4
I1197
sg5
I0
sg6
I135
sg7
I876
sg8
I1197
sa(dp25
g2
I542
sg3
F52.70506108202443
sg4
I1146
sg5
I0
sg6
I75
sg7
I876
sg8
I1146
sa(dp26
g2
I414
sg3
F47.924528301886795
sg4
I795
sg5
I0
sg6
I627
sg7
I876
sg8
I795
sa(dp27
g2
I414
sg3
F45.45454545454545
sg4
I759
sg5
I0
sg6
I432
sg7
I876
sg8
I759
sa(dp28
g2
I416
sg3
F48.831488314883146
sg4
I813
sg5
I0
sg6
I432
sg7
I876
sg8
I813
sa(dp29
g2
I1629
sg3
F34.02187120291616
sg4
I2469
sg5
I0
sg6
I1524
sg7
I876
sg8
I2469
sa(dp30
g2
I832
sg3
F46.3571889103804
sg4
I1551
sg5
I0
sg6
I258
sg7
I876
sg8
I1551
sa(dp31
g2
I1280
sg3
F38.431938431938434
sg4
I2079
sg5
I0
sg6
I153
sg7
I876
sg8
I2079
sa(dp32
g2
I409
sg3
F42.47538677918425
sg4
I711
sg5
I0
sg6
I837
sg7
I876
sg8
I711
sa(dp33
g2
I519
sg3
F52.86103542234333
sg4
I1101
sg5
I0
sg6
I27
sg7
I876
sg8
I1101
sa(dp34
g2
I415
sg3
F50.77105575326216
sg4
I843
sg5
I0
sg6
I657
sg7
I876
sg8
I843
sa(dp35
g2
I1793
sg3
F32.237339380196524
sg4
I2646
sg5
I0
sg6
I120
sg7
I876
sg8
I2646
sa(dp36
g2
I424
sg3
F49.881796690307326
sg4
I846
sg5
I0
sg6
I828
sg7
I876
sg8
I846
sa(dp37
g2
I499
sg3
F52.611585944919284
sg4
I1053
sg5
I0
sg6
I63
sg7
I876
sg8
I1053
sa(dp38
g2
I587
sg3
F51.44747725392887
sg4
I1209
sg5
I0
sg6
I576
sg7
I876
sg8
I1209
sa(dp39
g2
I462
sg3
F49.8371335504886
sg4
I921
sg5
I0
sg6
I1455
sg7
I876
sg8
I921
sa(dp40
g2
I407
sg3
F48.61111111111111
sg4
I792
sg5
I0
sg6
I135
sg7
I876
sg8
I792
sa(dp41
g2
I422
sg3
F49.76190476190476
sg4
I840
sg5
I0
sg6
I129
sg7
I876
sg8
I840
sa(dp42
g2
I475
sg3
F53.15581854043393
sg4
I1014
sg5
I0
sg6
I69
sg7
I876
sg8
I1014
sa(dp43
g2
I589
sg3
F51.99674001629992
sg4
I1227
sg5
I0
sg6
I618
sg7
I876
sg8
I1227
sa(dp44
g2
I689
sg3
F49.076127124907615
sg4
I1353
sg5
I0
sg6
I441
sg7
I876
sg8
I1353
sa(dp45
g2
I1984
sg3
F30.239099859353026
sg4
I2844
sg5
I0
sg6
I726
sg7
I876
sg8
I2844
sa(dp46
g2
I421
sg3
F50.41224970553593
sg4
I849
sg5
I0
sg6
I693
sg7
I876
sg8
I849
sa(dp47
g2
I1285
sg3
F38.36930455635492
sg4
I2085
sg5
I0
sg6
I366
sg7
I876
sg8
I2085
sa(dp48
g2
I481
sg3
F51.560926485397786
sg4
I993
sg5
I0
sg6
I462
sg7
I876
sg8
I993
sa(dp49
g2
I544
sg3
F52.5305410122164
sg4
I1146
sg5
I0
sg6
I468
sg7
I876
sg8
I1146
sa(dp50
g2
I443
sg3
F50.28058361391695
sg4
I891
sg5
I0
sg6
I30
sg7
I876
sg8
I891
sa(dp51
g2
I406
sg3
F50.061500615006146
sg4
I813
sg5
I0
sg6
I15
sg7
I876
sg8
I813
sa(dp52
g2
I540
sg3
F52.38095238095239
sg4
I1134
sg5
I0
sg6
I1932
sg7
I876
sg8
I1134
sa(dp53
g2
I1143
sg3
F40.74650077760498
sg4
I1929
sg5
I0
sg6
I144
sg7
I876
sg8
I1929
sa(dp54
g2
I435
sg3
F51.98675496688742
sg4
I906
sg5
I0
sg6
I78
sg7
I876
sg8
I906
sa(dp55
g2
I481
sg3
F51.560926485397786
sg4
I993
sg5
I0
sg6
I942
sg7
I876
sg8
I993
sa(dp56
g2
I418
sg3
F49.333333333333336
sg4
I825
sg5
I0
sg6
I705
sg7
I876
sg8
I825
sa(dp57
g2
I487
sg3
F52.39491691104594
sg4
I1023
sg5
I0
sg6
I21
sg7
I876
sg8
I1023
sa(dp58
g2
I413
sg3
F43.112947658402206
sg4
I726
sg5
I0
sg6
I30
sg7
I876
sg8
I726
sa(dp59
g2
I510
sg3
F51.566951566951566
sg4
I1053
sg5
I0
sg6
I78
sg7
I876
sg8
I1053
sa(dp60
g2
I411
sg3
F47.30769230769231
sg4
I780
sg5
I0
sg6
I9
sg7
I876
sg8
I780
sa(dp61
g2
I7060
sg3
F11.027095148078136
sg4
I7935
sg5
I0
sg6
I222
sg7
I876
sg8
I7935
sa(dp62
g2
I423
sg3
F50.526315789473685
sg4
I855
sg5
I0
sg6
I1506
sg7
I876
sg8
I855
sa(dp63
g2
I463
sg3
F52.36625514403293
sg4
I972
sg5
I0
sg6
I753
sg7
I876
sg8
I972
sa(dp64
g2
I535
sg3
F52.189454870420015
sg4
I1119
sg5
I0
sg6
I171
sg7
I876
sg8
I1119
sa(dp65
g2
I686
sg3
F49.297856614929785
sg4
I1353
sg5
I0
sg6
I72
sg7
I876
sg8
I1353
sa(dp66
g2
I533
sg3
F51.721014492753625
sg4
I1104
sg5
I0
sg6
I222
sg7
I876
sg8
I1104
sa(dp67
g2
I433
sg3
F52.8322440087146
sg4
I918
sg5
I0
sg6
I117
sg7
I876
sg8
I918
sa(dp68
g2
I498
sg3
F52.70655270655271
sg4
I1053
sg5
I0
sg6
I60
sg7
I876
sg8
I1053
sa(dp69
g2
I470
sg3
F52.95295295295295
sg4
I999
sg5
I0
sg6
I75
sg7
I876
sg8
I999
sa(dp70
g2
I459
sg3
F51.118210862619804
sg4
I939
sg5
I0
sg6
I1110
sg7
I876
sg8
I939
sa(dp71
g2
I650
sg3
F49.72931167826759
sg4
I1293
sg5
I0
sg6
I72
sg7
I876
sg8
I1293
sa(dp72
g2
I423
sg3
F50.17667844522968
sg4
I849
sg5
I0
sg6
I42
sg7
I876
sg8
I849
sa(dp73
g2
I423
sg3
F51.37931034482759
sg4
I870
sg5
I0
sg6
I1281
sg7
I876
sg8
I870
sa(dp74
g2
I1022
sg3
F43.03232998885173
sg4
I1794
sg5
I0
sg6
I900
sg7
I876
sg8
I1794
sa(dp75
g2
I424
sg3
F50.754936120789786
sg4
I861
sg5
I0
sg6
I87
sg7
I876
sg8
I861
sa(dp76
g2
I412
sg3
F51.30023640661938
sg4
I846
sg5
I0
sg6
I15
sg7
I876
sg8
I846
sa(dp77
g2
I467
sg3
F53.112449799196796
sg4
I996
sg5
I0
sg6
I1155
sg7
I876
sg8
I996
sa(dp78
g2
I440
sg3
F52.840300107181136
sg4
I933
sg5
I0
sg6
I90
sg7
I876
sg8
I933
sa(dp79
g2
I400
sg3
F44.67496542185339
sg4
I723
sg5
I0
sg6
I18
sg7
I876
sg8
I723
sa(dp80
g2
I488
sg3
F52.015732546706
sg4
I1017
sg5
I0
sg6
I129
sg7
I876
sg8
I1017
sa(dp81
g2
I1651
sg3
F33.774568792619334
sg4
I2493
sg5
I0
sg6
I201
sg7
I876
sg8
I2493
sa(dp82
g2
I550
sg3
F52.13228894691036
sg4
I1149
sg5
I0
sg6
I1116
sg7
I876
sg8
I1149
sa(dp83
g2
I487
sg3
F53.48615090735434
sg4
I1047
sg5
I0
sg6
I2106
sg7
I876
sg8
I1047
sa(dp84
g2
I712
sg3
F48.85057471264368
sg4
I1392
sg5
I0
sg6
I114
sg7
I876
sg8
I1392
sa(dp85
g2
I464
sg3
F51.81723779854621
sg4
I963
sg5
I0
sg6
I408
sg7
I876
sg8
I963
sa(dp86
g2
I459
sg3
F52.03761755485894
sg4
I957
sg5
I0
sg6
I120
sg7
I876
sg8
I957
sa(dp87
g2
I499
sg3
F53.408029878618116
sg4
I1071
sg5
I0
sg6
I84
sg7
I876
sg8
I1071
sa(dp88
g2
I455
sg3
F50.75757575757576
sg4
I924
sg5
I0
sg6
I9
sg7
I876
sg8
I924
sa(dp89
g2
I518
sg3
F52.694063926940636
sg4
I1095
sg5
I0
sg6
I3
sg7
I876
sg8
I1095
sa(dp90
g2
I472
sg3
F52.8942115768463
sg4
I1002
sg5
I0
sg6
I129
sg7
I876
sg8
I1002
sa(dp91
g2
I533
sg3
F52.11141060197664
sg4
I1113
sg5
I0
sg6
I357
sg7
I876
sg8
I1113
sa(dp92
g2
I466
sg3
F52.205128205128204
sg4
I975
sg5
I0
sg6
I189
sg7
I876
sg8
I975
sa(dp93
g2
I891
sg3
F44.89795918367347
sg4
I1617
sg5
I0
sg6
I57
sg7
I876
sg8
I1617
sa(dp94
g2
I771
sg3
F47.55102040816326
sg4
I1470
sg5
I0
sg6
I75
sg7
I876
sg8
I1470
sa(dp95
g2
I528
sg3
F51.11111111111111
sg4
I1080
sg5
I0
sg6
I1320
sg7
I876
sg8
I1080
sa(dp96
g2
I451
sg3
F53.16718587746625
sg4
I963
sg5
I0
sg6
I711
sg7
I876
sg8
I963
sa(dp97
g2
I483
sg3
F53.602305475504316
sg4
I1041
sg5
I0
sg6
I354
sg7
I876
sg8
I1041
sa(dp98
g2
I1006
sg3
F43.163841807909606
sg4
I1770
sg5
I0
sg6
I519
sg7
I876
sg8
I1770
sa(dp99
g2
I421
sg3
F48.02469135802469
sg4
I810
sg5
I0
sg6
I30
sg7
I876
sg8
I810
sa(dp100
g2
I451
sg3
F48.33906071019473
sg4
I873
sg5
I0
sg6
I51
sg7
I876
sg8
I873
sa(dp101
g2
I411
sg3
F51.07142857142857
sg4
I840
sg5
I0
sg6
I387
sg7
I876
sg8
I840
sa(dp102
g2
I792
sg3
F47.514910536779325
sg4
I1509
sg5
I0
sg6
I42
sg7
I876
sg8
I1509
sa(dp103
g2
I399
sg3
F43.162393162393165
sg4
I702
sg5
I0
sg6
I384
sg7
I876
sg8
I702
sa(dp104
g2
I534
sg3
F51.76151761517615
sg4
I1107
sg5
I0
sg6
I51
sg7
I876
sg8
I1107
sa(dp105
g2
I484
sg3
F52.126607319485665
sg4
I1011
sg5
I0
sg6
I99
sg7
I876
sg8
I1011
sa(dp106
g2
I411
sg3
F42.19409282700422
sg4
I711
sg5
I0
sg6
I615
sg7
I876
sg8
I711
sa(dp107
g2
I420
sg3
F44.66403162055336
sg4
I759
sg5
I0
sg6
I2655
sg7
I876
sg8
I759
sa(dp108
g2
I3439
sg3
F20.282800185442746
sg4
I4314
sg5
I0
sg6
I204
sg7
I876
sg8
I4314
sa(dp109
g2
I704
sg3
F49.09616775126536
sg4
I1383
sg5
I0
sg6
I48
sg7
I876
sg8
I1383
sa(dp110
g2
I426
sg3
F51.20274914089347
sg4
I873
sg5
I0
sg6
I123
sg7
I876
sg8
I873
sa(dp111
g2
I408
sg3
F44.26229508196721
sg4
I732
sg5
I0
sg6
I507
sg7
I876
sg8
I732
sa(dp112
g2
I410
sg3
F46.82230869001297
sg4
I771
sg5
I0
sg6
I75
sg7
I876
sg8
I771
sa(dp113
g2
I976
sg3
F43.42028985507246
sg4
I1725
sg5
I0
sg6
I1284
sg7
I876
sg8
I1725
sa(dp114
g2
I521
sg3
F52.93586269196025
sg4
I1107
sg5
I0
sg6
I570
sg7
I876
sg8
I1107
sa(dp115
g2
I406
sg3
F46.928104575163395
sg4
I765
sg5
I0
sg6
I21
sg7
I876
sg8
I765
sa(dp116
g2
I2368
sg3
F26.64188351920694
sg4
I3228
sg5
I0
sg6
I522
sg7
I876
sg8
I3228
sa(dp117
g2
I1629
sg3
F33.941605839416056
sg4
I2466
sg5
I0
sg6
I141
sg7
I876
sg8
I2466
sa(dp118
g2
I847
sg3
F46.016571064372215
sg4
I1569
sg5
I0
sg6
I1911
sg7
I876
sg8
I1569
sa(dp119
g2
I896
sg3
F45.49878345498784
sg4
I1644
sg5
I0
sg6
I120
sg7
I876
sg8
I1644
sa(dp120
g2
I406
sg3
F43.375174337517436
sg4
I717
sg5
I0
sg6
I270
sg7
I876
sg8
I717
sa(dp121
g2
I1029
sg3
F42.833333333333336
sg4
I1800
sg5
I0
sg6
I192
sg7
I876
sg8
I1800
sa(dp122
g2
I519
sg3
F52.86103542234333
sg4
I1101
sg5
I0
sg6
I990
sg7
I876
sg8
I1101
sa(dp123
g2
I775
sg3
F47.70580296896087
sg4
I1482
sg5
I0
sg6
I717
sg7
I876
sg8
I1482
sa(dp124
g2
I411
sg3
F41.452991452991455
sg4
I702
sg5
I0
sg6
I903
sg7
I876
sg8
I702
sa(dp125
g2
I413
sg3
F50.1207729468599
sg4
I828
sg5
I0
sg6
I156
sg7
I876
sg8
I828
sa(dp126
g2
I426
sg3
F51.5358361774744
sg4
I879
sg5
I0
sg6
I2397
sg7
I876
sg8
I879
sa(dp127
g2
I433
sg3
F50.05767012687428
sg4
I867
sg5
I0
sg6
I1458
sg7
I876
sg8
I867
sa(dp128
g2
I413
sg3
F41.168091168091166
sg4
I702
sg5
I0
sg6
I72
sg7
I876
sg8
I702
sa(dp129
g2
I456
sg3
F51.59235668789809
sg4
I942
sg5
I0
sg6
I45
sg7
I876
sg8
I942
sa(dp130
g2
I802
sg3
F46.95767195767196
sg4
I1512
sg5
I0
sg6
I84
sg7
I876
sg8
I1512
sa(dp131
g2
I436
sg3
F52.19298245614035
sg4
I912
sg5
I0
sg6
I69
sg7
I876
sg8
I912
sa(dp132
g2
I586
sg3
F49.914529914529915
sg4
I1170
sg5
I0
sg6
I186
sg7
I876
sg8
I1170
sa(dp133
g2
I451
sg3
F51.81623931623932
sg4
I936
sg5
I0
sg6
I1314
sg7
I876
sg8
I936
sa(dp134
g2
I426
sg3
F49.82332155477032
sg4
I849
sg5
I0
sg6
I1092
sg7
I876
sg8
I849
sa(dp135
g2
I726
sg3
F48.51063829787234
sg4
I1410
sg5
I0
sg6
I204
sg7
I876
sg8
I1410
sa(dp136
g2
I506
sg3
F53.789954337899545
sg4
I1095
sg5
I0
sg6
I1032
sg7
I876
sg8
I1095
sa(dp137
g2
I599
sg3
F50.941850941850944
sg4
I1221
sg5
I0
sg6
I324
sg7
I876
sg8
I1221
sa(dp138
g2
I557
sg3
F52.02411714039621
sg4
I1161
sg5
I0
sg6
I288
sg7
I876
sg8
I1161
sa(dp139
g2
I415
sg3
F46.17380025940337
sg4
I771
sg5
I0
sg6
I762
sg7
I876
sg8
I771
sa(dp140
g2
I485
sg3
F52.31071779744346
sg4
I1017
sg5
I0
sg6
I111
sg7
I876
sg8
I1017
sa(dp141
g2
I1420
sg3
F36.888888888888886
sg4
I2250
sg5
I0
sg6
I414
sg7
I876
sg8
I2250
sa(dp142
g2
I738
sg3
F48.21052631578947
sg4
I1425
sg5
I0
sg6
I999
sg7
I876
sg8
I1425
sa(dp143
g2
I432
sg3
F50.85324232081911
sg4
I879
sg5
I0
sg6
I822
sg7
I876
sg8
I879
sa(dp144
g2
I415
sg3
F44.666666666666664
sg4
I750
sg5
I0
sg6
I273
sg7
I876
sg8
I750
sa(dp145
g2
I438
sg3
F51.81518151815182
sg4
I909
sg5
I0
sg6
I462
sg7
I876
sg8
I909
sa(dp146
g2
I499
sg3
F52.476190476190474
sg4
I1050
sg5
I0
sg6
I258
sg7
I876
sg8
I1050
sa(dp147
g2
I411
sg3
F50.36231884057971
sg4
I828
sg5
I0
sg6
I1362
sg7
I876
sg8
I828
sa(dp148
g2
I435
sg3
F49.47735191637631
sg4
I861
sg5
I0
sg6
I378
sg7
I876
sg8
I861
sa(dp149
g2
I532
sg3
F52.96198054818745
sg4
I1131
sg5
I0
sg6
I642
sg7
I876
sg8
I1131
sa(dp150
g2
I2267
sg3
F27.756532823454428
sg4
I3138
sg5
I0
sg6
I66
sg7
I876
sg8
I3138
sa(dp151
g2
I448
sg3
F53.76676986584107
sg4
I969
sg5
I0
sg6
I84
sg7
I876
sg8
I969
sa(dp152
g2
I918
sg3
F44.765342960288805
sg4
I1662
sg5
I0
sg6
I84
sg7
I876
sg8
I1662
sa(dp153
g2
I427
sg3
F49.705535924617195
sg4
I849
sg5
I0
sg6
I171
sg7
I876
sg8
I849
sa(dp154
g2
I1020
sg3
F42.567567567567565
sg4
I1776
sg5
I0
sg6
I813
sg7
I876
sg8
I1776
sa(dp155
g2
I418
sg3
F49.51690821256038
sg4
I828
sg5
I0
sg6
I1734
sg7
I876
sg8
I828
sa(dp156
g2
I538
sg3
F52.17777777777778
sg4
I1125
sg5
I0
sg6
I813
sg7
I876
sg8
I1125
sa(dp157
g2
I434
sg3
F51.77777777777778
sg4
I900
sg5
I0
sg6
I36
sg7
I876
sg8
I900
sa(dp158
g2
I588
sg3
F51.724137931034484
sg4
I1218
sg5
I0
sg6
I2220
sg7
I876
sg8
I1218
sa(dp159
g2
I1593
sg3
F34.28217821782179
sg4
I2424
sg5
I0
sg6
I138
sg7
I876
sg8
I2424
sa(dp160
g2
I500
sg3
F51.55038759689923
sg4
I1032
sg5
I0
sg6
I984
sg7
I876
sg8
I1032
sa(dp161
g2
I595
sg3
F51.6260162601626
sg4
I1230
sg5
I0
sg6
I390
sg7
I876
sg8
I1230
sa(dp162
g2
I859
sg3
F45.87271581600504
sg4
I1587
sg5
I0
sg6
I60
sg7
I876
sg8
I1587
sa(dp163
g2
I1512
sg3
F35.46734955185659
sg4
I2343
sg5
I0
sg6
I60
sg7
I876
sg8
I2343
sa(dp164
g2
I435
sg3
F48.943661971830984
sg4
I852
sg5
I0
sg6
I780
sg7
I876
sg8
I852
sa(dp165
g2
I412
sg3
F49.50980392156863
sg4
I816
sg5
I0
sg6
I36
sg7
I876
sg8
I816
sa(dp166
g2
I417
sg3
F49.45454545454545
sg4
I825
sg5
I0
sg6
I345
sg7
I876
sg8
I825
sa(dp167
g2
I416
sg3
F49.2063492063492
sg4
I819
sg5
I0
sg6
I522
sg7
I876
sg8
I819
sa(dp168
g2
I602
sg3
F50.696150696150696
sg4
I1221
sg5
I0
sg6
I15
sg7
I876
sg8
I1221
sa(dp169
g2
I414
sg3
F51.578947368421055
sg4
I855
sg5
I0
sg6
I468
sg7
I876
sg8
I855
sa(dp170
g2
I1001
sg3
F43.25396825396825
sg4
I1764
sg5
I0
sg6
I1239
sg7
I876
sg8
I1764
sa(dp171
g2
I1167
sg3
F39.96913580246913
sg4
I1944
sg5
I0
sg6
I432
sg7
I876
sg8
I1944
sa(dp172
g2
I2821
sg3
F23.674242424242426
sg4
I3696
sg5
I0
sg6
I381
sg7
I876
sg8
I3696
sa(dp173
g2
I704
sg3
F49.2063492063492
sg4
I1386
sg5
I0
sg6
I345
sg7
I876
sg8
I1386
sa(dp174
g2
I472
sg3
F51.738241308793455
sg4
I978
sg5
I0
sg6
I138
sg7
I876
sg8
I978
sa(dp175
g2
I469
sg3
F54.01960784313725
sg4
I1020
sg5
I0
sg6
I132
sg7
I876
sg8
I1020
sa(dp176
g2
I857
sg3
F46.30325814536341
sg4
I1596
sg5
I0
sg6
I342
sg7
I876
sg8
I1596
sa(dp177
g2
I414
sg3
F42.016806722689076
sg4
I714
sg5
I0
sg6
I141
sg7
I876
sg8
I714
sa(dp178
g2
I482
sg3
F53.69836695485111
sg4
I1041
sg5
I0
sg6
I519
sg7
I876
sg8
I1041
sa(dp179
g2
I420
sg3
F50.177935943060504
sg4
I843
sg5
I0
sg6
I630
sg7
I876
sg8
I843
sa(dp180
g2
I1667
sg3
F33.53269537480064
sg4
I2508
sg5
I0
sg6
I567
sg7
I876
sg8
I2508
sa(dp181
g2
I2025
sg3
F29.83367983367983
sg4
I2886
sg5
I0
sg6
I531
sg7
I876
sg8
I2886
sa(dp182
g2
I410
sg3
F43.98907103825137
sg4
I732
sg5
I0
sg6
I18
sg7
I876
sg8
I732
sa(dp183
g2
I858
sg3
F46.13935969868173
sg4
I1593
sg5
I0
sg6
I36
sg7
I876
sg8
I1593
sa(dp184
g2
I1307
sg3
F38.02750118539592
sg4
I2109
sg5
I0
sg6
I1185
sg7
I876
sg8
I2109
sa(dp185
g2
I585
sg3
F52.08845208845209
sg4
I1221
sg5
I0
sg6
I174
sg7
I876
sg8
I1221
sa(dp186
g2
I723
sg3
F48.394004282655246
sg4
I1401
sg5
I0
sg6
I6
sg7
I876
sg8
I1401
sa(dp187
g2
I428
sg3
F50.804597701149426
sg4
I870
sg5
I0
sg6
I162
sg7
I876
sg8
I870
sa(dp188
g2
I845
sg3
F45.93730006397953
sg4
I1563
sg5
I0
sg6
I8613
sg7
I876
sg8
I1563
sa(dp189
g2
I435
sg3
F51.98675496688742
sg4
I906
sg5
I0
sg6
I42
sg7
I876
sg8
I906
sa(dp190
g2
I1478
sg3
F35.93411356740355
sg4
I2307
sg5
I0
sg6
I1437
sg7
I876
sg8
I2307
sa(dp191
g2
I564
sg3
F51.670951156812336
sg4
I1167
sg5
I0
sg6
I471
sg7
I876
sg8
I1167
sa(dp192
g2
I418
sg3
F47.22222222222222
sg4
I792
sg5
I0
sg6
I786
sg7
I876
sg8
I792
sa(dp193
g2
I417
sg3
F47.54716981132076
sg4
I795
sg5
I0
sg6
I303
sg7
I876
sg8
I795
sa(dp194
g2
I477
sg3
F52.95857988165681
sg4
I1014
sg5
I0
sg6
I579
sg7
I876
sg8
I1014
sa(dp195
g2
I486
sg3
F53.31412103746398
sg4
I1041
sg5
I1
sg6
I390
sg7
I876
sg8
I1041
sa(dp196
g2
I529
sg3
F52.85204991087345
sg4
I1122
sg5
I1
sg6
I42
sg7
I876
sg8
I1122
sa(dp197
g2
I467
sg3
F53.25325325325325
sg4
I999
sg5
I1
sg6
I861
sg7
I876
sg8
I999
sa(dp198
g2
I6946
sg3
F11.187827643523846
sg4
I7821
sg5
I1
sg6
I258
sg7
I876
sg8
I7821
sa(dp199
g2
I739
sg3
F48.57341684064022
sg4
I1437
sg5
I1
sg6
I897
sg7
I876
sg8
I1437
sa(dp200
g2
I487
sg3
F52.672497570456756
sg4
I1029
sg5
I1
sg6
I102
sg7
I876
sg8
I1029
sa(dp201
g2
I511
sg3
F53.205128205128204
sg4
I1092
sg5
I1
sg6
I291
sg7
I876
sg8
I1092
sa(dp202
g2
I1608
sg3
F34.15233415233415
sg4
I2442
sg5
I1
sg6
I63
sg7
I876
sg8
I2442
sa(dp203
g2
I423
sg3
F49.280575539568346
sg4
I834
sg5
I1
sg6
I84
sg7
I876
sg8
I834
sa(dp204
g2
I420
sg3
F42.14876033057851
sg4
I726
sg5
I1
sg6
I315
sg7
I876
sg8
I726
sa(dp205
g2
I425
sg3
F47.13930348258707
sg4
I804
sg5
I1
sg6
I21
sg7
I876
sg8
I804
sa(dp206
g2
I430
sg3
F52.06243032329989
sg4
I897
sg5
I1
sg6
I1593
sg7
I876
sg8
I897
sa(dp207
g2
I1166
sg3
F40.7520325203252
sg4
I1968
sg5
I1
sg6
I45
sg7
I876
sg8
I1968
sa(dp208
g2
I439
sg3
F52.02185792349727
sg4
I915
sg5
I1
sg6
I99
sg7
I876
sg8
I915
sa(dp209
g2
I568
sg3
F51.32819194515853
sg4
I1167
sg5
I1
sg6
I402
sg7
I876
sg8
I1167
sa(dp210
g2
I1475
sg3
F36.064152579107066
sg4
I2307
sg5
I1
sg6
I774
sg7
I876
sg8
I2307
sa(dp211
g2
I854
sg3
F45.8808618504436
sg4
I1578
sg5
I1
sg6
I657
sg7
I876
sg8
I1578
sa(dp212
g2
I1160
sg3
F40.604198668714794
sg4
I1953
sg5
I1
sg6
I72
sg7
I876
sg8
I1953
sa(dp213
g2
I1364
sg3
F37.54578754578755
sg4
I2184
sg5
I1
sg6
I126
sg7
I876
sg8
I2184
sa(dp214
g2
I438
sg3
F51.17056856187291
sg4
I897
sg5
I1
sg6
I138
sg7
I876
sg8
I897
sa(dp215
g2
I407
sg3
F42.51412429378531
sg4
I708
sg5
I1
sg6
I57
sg7
I876
sg8
I708
sa(dp216
g2
I520
sg3
F53.153153153153156
sg4
I1110
sg5
I1
sg6
I756
sg7
I876
sg8
I1110
sa(dp217
g2
I485
sg3
F52.16962524654832
sg4
I1014
sg5
I1
sg6
I12
sg7
I876
sg8
I1014
sa(dp218
g2
I411
sg3
F49.63235294117647
sg4
I816
sg5
I1
sg6
I603
sg7
I876
sg8
I816
sa(dp219
g2
I413
sg3
F46.01307189542484
sg4
I765
sg5
I1
sg6
I45
sg7
I876
sg8
I765
sa(dp220
g2
I929
sg3
F44.504181600955796
sg4
I1674
sg5
I1
sg6
I96
sg7
I876
sg8
I1674
sa(dp221
g2
I690
sg3
F49.45054945054945
sg4
I1365
sg5
I1
sg6
I321
sg7
I876
sg8
I1365
sa(dp222
g2
I442
sg3
F49.71558589306029
sg4
I879
sg5
I1
sg6
I2865
sg7
I876
sg8
I879
sa(dp223
g2
I483
sg3
F52.92397660818714
sg4
I1026
sg5
I1
sg6
I204
sg7
I876
sg8
I1026
sa(dp224
g2
I431
sg3
F48.50657108721625
sg4
I837
sg5
I1
sg6
I402
sg7
I876
sg8
I837
sa(dp225
g2
I432
sg3
F50.17301038062284
sg4
I867
sg5
I1
sg6
I24
sg7
I876
sg8
I867
sa(dp226
g2
I516
sg3
F52.74725274725275
sg4
I1092
sg5
I1
sg6
I1782
sg7
I876
sg8
I1092
sa(dp227
g2
I620
sg3
F50.558213716108455
sg4
I1254
sg5
I1
sg6
I138
sg7
I876
sg8
I1254
sa(dp228
g2
I402
sg3
F47.03557312252965
sg4
I759
sg5
I1
sg6
I450
sg7
I876
sg8
I759
sa(dp229
g2
I1928
sg3
F30.52252252252252
sg4
I2775
sg5
I1
sg6
I141
sg7
I876
sg8
I2775
sa(dp230
g2
I1561
sg3
F34.713508992053534
sg4
I2391
sg5
I1
sg6
I246
sg7
I876
sg8
I2391
sa(dp231
g2
I761
sg3
F48.01912568306011
sg4
I1464
sg5
I1
sg6
I66
sg7
I876
sg8
I1464
sa(dp232
g2
I1559
sg3
F34.87886382623225
sg4
I2394
sg5
I1
sg6
I15
sg7
I876
sg8
I2394
sa(dp233
g2
I452
sg3
F53.20910973084886
sg4
I966
sg5
I1
sg6
I138
sg7
I876
sg8
I966
sa(dp234
g2
I586
sg3
F52.70379338175948
sg4
I1239
sg5
I1
sg6
I63
sg7
I876
sg8
I1239
sa(dp235
g2
I1449
sg3
F36.19550858652576
sg4
I2271
sg5
I1
sg6
I156
sg7
I876
sg8
I2271
sa(dp236
g2
I422
sg3
F49.76190476190476
sg4
I840
sg5
I1
sg6
I108
sg7
I876
sg8
I840
sa(dp237
g2
I808
sg3
F46.981627296587924
sg4
I1524
sg5
I1
sg6
I318
sg7
I876
sg8
I1524
sa(dp238
g2
I591
sg3
F51.71568627450981
sg4
I1224
sg5
I1
sg6
I609
sg7
I876
sg8
I1224
sa(dp239
g2
I483
sg3
F53.06122448979592
sg4
I1029
sg5
I1
sg6
I315
sg7
I876
sg8
I1029
sa(dp240
g2
I414
sg3
F49.63503649635037
sg4
I822
sg5
I1
sg6
I1476
sg7
I876
sg8
I822
sa(dp241
g2
I632
sg3
F50.77881619937694
sg4
I1284
sg5
I1
sg6
I1122
sg7
I876
sg8
I1284
sa(dp242
g2
I796
sg3
F47.56258234519104
sg4
I1518
sg5
I1
sg6
I720
sg7
I876
sg8
I1518
sa(dp243
g2
I416
sg3
F48.258706467661696
sg4
I804
sg5
I1
sg6
I2418
sg7
I876
sg8
I804
sa(dp244
g2
I678
sg3
F50.11037527593819
sg4
I1359
sg5
I1
sg6
I3
sg7
I876
sg8
I1359
sa(dp245
g2
I419
sg3
F49.21212121212121
sg4
I825
sg5
I1
sg6
I729
sg7
I876
sg8
I825
sa(dp246
g2
I419
sg3
F50.64782096584217
sg4
I849
sg5
I1
sg6
I417
sg7
I876
sg8
I849
sa(dp247
g2
I420
sg3
F50.0
sg4
I840
sg5
I1
sg6
I24
sg7
I876
sg8
I840
sa(dp248
g2
I429
sg3
F51.85185185185185
sg4
I891
sg5
I1
sg6
I3
sg7
I876
sg8
I891
sa(dp249
g2
I826
sg3
F46.64082687338501
sg4
I1548
sg5
I1
sg6
I690
sg7
I876
sg8
I1548
sa(dp250
g2
I404
sg3
F44.12171507607192
sg4
I723
sg5
I1
sg6
I192
sg7
I876
sg8
I723
sa(dp251
g2
I421
sg3
F49.70131421744325
sg4
I837
sg5
I1
sg6
I39
sg7
I876
sg8
I837
sa(dp252
g2
I666
sg3
F50.0
sg4
I1332
sg5
I1
sg6
I816
sg7
I876
sg8
I1332
sa(dp253
g2
I733
sg3
F48.561403508771924
sg4
I1425
sg5
I1
sg6
I387
sg7
I876
sg8
I1425
sa(dp254
g2
I404
sg3
F43.65411436541143
sg4
I717
sg5
I1
sg6
I903
sg7
I876
sg8
I717
sa(dp255
g2
I904
sg3
F45.01216545012166
sg4
I1644
sg5
I1
sg6
I18
sg7
I876
sg8
I1644
sa(dp256
g2
I1285
sg3
F38.36930455635492
sg4
I2085
sg5
I1
sg6
I57
sg7
I876
sg8
I2085
sa(dp257
g2
I821
sg3
F47.06640876853643
sg4
I1551
sg5
I1
sg6
I606
sg7
I876
sg8
I1551
sa(dp258
g2
I454
sg3
F52.41090146750524
sg4
I954
sg5
I1
sg6
I195
sg7
I876
sg8
I954
sa(dp259
g2
I424
sg3
F50.58275058275058
sg4
I858
sg5
I1
sg6
I342
sg7
I876
sg8
I858
sa(dp260
g2
I414
sg3
F44.12955465587044
sg4
I741
sg5
I1
sg6
I1917
sg7
I876
sg8
I741
sa(dp261
g2
I648
sg3
F50.79726651480638
sg4
I1317
sg5
I1
sg6
I351
sg7
I876
sg8
I1317
sa(dp262
g2
I561
sg3
F52.17391304347826
sg4
I1173
sg5
I1
sg6
I135
sg7
I876
sg8
I1173
sa(dp263
g2
I453
sg3
F53.105590062111794
sg4
I966
sg5
I1
sg6
I72
sg7
I876
sg8
I966
sa(dp264
g2
I432
sg3
F52.0
sg4
I900
sg5
I1
sg6
I522
sg7
I876
sg8
I900
sa(dp265
g2
I834
sg3
F46.22823984526112
sg4
I1551
sg5
I1
sg6
I114
sg7
I876
sg8
I1551
sa(dp266
g2
I1048
sg3
F42.44920373421197
sg4
I1821
sg5
I1
sg6
I75
sg7
I876
sg8
I1821
sa(dp267
g2
I415
sg3
F46.58944658944659
sg4
I777
sg5
I1
sg6
I1488
sg7
I876
sg8
I777
sa(dp268
g2
I726
sg3
F48.9451476793249
sg4
I1422
sg5
I1
sg6
I108
sg7
I876
sg8
I1422
sa(dp269
g2
I406
sg3
F45.43010752688172
sg4
I744
sg5
I1
sg6
I135
sg7
I876
sg8
I744
sa(dp270
g2
I1553
sg3
F34.96649916247907
sg4
I2388
sg5
I1
sg6
I78
sg7
I876
sg8
I2388
sa(dp271
g2
I989
sg3
F43.25874928284567
sg4
I1743
sg5
I1
sg6
I66
sg7
I876
sg8
I1743
sa(dp272
g2
I415
sg3
F46.382428940568474
sg4
I774
sg5
I1
sg6
I1386
sg7
I876
sg8
I774
sa(dp273
g2
I416
sg3
F47.07379134860051
sg4
I786
sg5
I1
sg6
I9
sg7
I876
sg8
I786
sa(dp274
g2
I403
sg3
F46.480743691899065
sg4
I753
sg5
I1
sg6
I438
sg7
I876
sg8
I753
sa(dp275
g2
I1515
sg3
F35.50446998722861
sg4
I2349
sg5
I1
sg6
I66
sg7
I876
sg8
I2349
sa(dp276
g2
I417
sg3
F41.596638655462186
sg4
I714
sg5
I1
sg6
I66
sg7
I876
sg8
I714
sa(dp277
g2
I468
sg3
F52.0
sg4
I975
sg5
I1
sg6
I1392
sg7
I876
sg8
I975
sa(dp278
g2
I550
sg3
F51.88101487314086
sg4
I1143
sg5
I1
sg6
I282
sg7
I876
sg8
I1143
sa(dp279
g2
I805
sg3
F47.07429322813938
sg4
I1521
sg5
I1
sg6
I165
sg7
I876
sg8
I1521
sa(dp280
g2
I1094
sg3
F41.18279569892473
sg4
I1860
sg5
I1
sg6
I525
sg7
I876
sg8
I1860
sa(dp281
g2
I544
sg3
F52.65448215839861
sg4
I1149
sg5
I1
sg6
I1074
sg7
I876
sg8
I1149
sa(dp282
g2
I958
sg3
F43.779342723004696
sg4
I1704
sg5
I1
sg6
I354
sg7
I876
sg8
I1704
sa(dp283
g2
I418
sg3
F48.00995024875622
sg4
I804
sg5
I1
sg6
I900
sg7
I876
sg8
I804
sa(dp284
g2
I800
sg3
F47.814742335290276
sg4
I1533
sg5
I1
sg6
I162
sg7
I876
sg8
I1533
sa(dp285
g2
I642
sg3
F50.57736720554272
sg4
I1299
sg5
I1
sg6
I57
sg7
I876
sg8
I1299
sa(dp286
g2
I421
sg3
F49.52038369304556
sg4
I834
sg5
I1
sg6
I129
sg7
I876
sg8
I834
sa(dp287
g2
I411
sg3
F42.436974789915965
sg4
I714
sg5
I1
sg6
I855
sg7
I876
sg8
I714
sa(dp288
g2
I856
sg3
F45.754119138149555
sg4
I1578
sg5
I1
sg6
I18
sg7
I876
sg8
I1578
sa(dp289
g2
I498
sg3
F53.50140056022409
sg4
I1071
sg5
I1
sg6
I894
sg7
I876
sg8
I1071
sa(dp290
g2
I632
sg3
F51.1214230471771
sg4
I1293
sg5
I1
sg6
I156
sg7
I876
sg8
I1293
sa(dp291
g2
I1179
sg3
F40.0
sg4
I1965
sg5
I1
sg6
I720
sg7
I876
sg8
I1965
sa(dp292
g2
I411
sg3
F41.94915254237288
sg4
I708
sg5
I1
sg6
I1065
sg7
I876
sg8
I708
sa(dp293
g2
I439
sg3
F50.89485458612975
sg4
I894
sg5
I1
sg6
I1707
sg7
I876
sg8
I894
sa(dp294
g2
I912
sg3
F45.02712477396022
sg4
I1659
sg5
I1
sg6
I270
sg7
I876
sg8
I1659
sa(dp295
g2
I412
sg3
F45.93175853018373
sg4
I762
sg5
I1
sg6
I294
sg7
I876
sg8
I762
sa(dp296
g2
I629
sg3
F50.78247261345853
sg4
I1278
sg5
I1
sg6
I9
sg7
I876
sg8
I1278
sa(dp297
g2
I417
sg3
F48.134328358208954
sg4
I804
sg5
I1
sg6
I231
sg7
I876
sg8
I804
sa(dp298
g2
I695
sg3
F49.7469269703543
sg4
I1383
sg5
I1
sg6
I375
sg7
I876
sg8
I1383
sa(dp299
g2
I528
sg3
F52.94117647058824
sg4
I1122
sg5
I1
sg6
I1800
sg7
I876
sg8
I1122
sa(dp300
g2
I640
sg3
F49.80392156862745
sg4
I1275
sg5
I1
sg6
I171
sg7
I876
sg8
I1275
sa(dp301
g2
I553
sg3
F52.85592497868713
sg4
I1173
sg5
I1
sg6
I987
sg7
I876
sg8
I1173
sa(dp302
g2
I590
sg3
F51.440329218106996
sg4
I1215
sg5
I1
sg6
I126
sg7
I876
sg8
I1215
sa(dp303
g2
I416
sg3
F43.859649122807014
sg4
I741
sg5
I1
sg6
I645
sg7
I876
sg8
I741
sa(dp304
g2
I431
sg3
F50.45977011494253
sg4
I870
sg5
I1
sg6
I198
sg7
I876
sg8
I870
sa(dp305
g2
I411
sg3
F41.702127659574465
sg4
I705
sg5
I1
sg6
I255
sg7
I876
sg8
I705
sa(dp306
g2
I414
sg3
F46.30350194552529
sg4
I771
sg5
I1
sg6
I138
sg7
I876
sg8
I771
sa(dp307
g2
I483
sg3
F52.92397660818714
sg4
I1026
sg5
I1
sg6
I906
sg7
I876
sg8
I1026
sa(dp308
g2
I639
sg3
F49.04306220095694
sg4
I1254
sg5
I1
sg6
I51
sg7
I876
sg8
I1254
sa(dp309
g2
I431
sg3
F50.11574074074075
sg4
I864
sg5
I1
sg6
I48
sg7
I876
sg8
I864
sa(dp310
g2
I1333
sg3
F37.5936329588015
sg4
I2136
sg5
I1
sg6
I2037
sg7
I876
sg8
I2136
sa(dp311
g2
I420
sg3
F48.148148148148145
sg4
I810
sg5
I1
sg6
I243
sg7
I876
sg8
I810
sa(dp312
g2
I427
sg3
F50.40650406504065
sg4
I861
sg5
I1
sg6
I12
sg7
I876
sg8
I861
sa(dp313
g2
I409
sg3
F47.361647361647364
sg4
I777
sg5
I1
sg6
I6
sg7
I876
sg8
I777
sa(dp314
g2
I404
sg3
F43.888888888888886
sg4
I720
sg5
I1
sg6
I126
sg7
I876
sg8
I720
sa(dp315
g2
I850
sg3
F45.51282051282051
sg4
I1560
sg5
I1
sg6
I1392
sg7
I876
sg8
I1560
sa(dp316
g2
I416
sg3
F40.74074074074074
sg4
I702
sg5
I1
sg6
I180
sg7
I876
sg8
I702
sa(dp317
g2
I413
sg3
F49.20049200492005
sg4
I813
sg5
I1
sg6
I996
sg7
I876
sg8
I813
sa(dp318
g2
I569
sg3
F51.6156462585034
sg4
I1176
sg5
I1
sg6
I15
sg7
I876
sg8
I1176
sa(dp319
g2
I413
sg3
F46.846846846846844
sg4
I777
sg5
I1
sg6
I207
sg7
I876
sg8
I777
sa(dp320
g2
I690
sg3
F49.22737306843267
sg4
I1359
sg5
I1
sg6
I84
sg7
I876
sg8
I1359
sa(dp321
g2
I409
sg3
F42.2316384180791
sg4
I708
sg5
I1
sg6
I132
sg7
I876
sg8
I708
sa(dp322
g2
I396
sg3
F45.45454545454545
sg4
I726
sg5
I1
sg6
I1098
sg7
I876
sg8
I726
sa(dp323
g2
I486
sg3
F54.23728813559322
sg4
I1062
sg5
I1
sg6
I42
sg7
I876
sg8
I1062
sa(dp324
g2
I816
sg3
F46.875
sg4
I1536
sg5
I1
sg6
I1275
sg7
I876
sg8
I1536
sa(dp325
g2
I404
sg3
F46.56084656084656
sg4
I756
sg5
I1
sg6
I111
sg7
I876
sg8
I756
sa(dp326
g2
I420
sg3
F46.7680608365019
sg4
I789
sg5
I1
sg6
I51
sg7
I876
sg8
I789
sa(dp327
g2
I428
sg3
F49.76525821596244
sg4
I852
sg5
I1
sg6
I81
sg7
I876
sg8
I852
sa(dp328
g2
I404
sg3
F47.18954248366013
sg4
I765
sg5
I1
sg6
I447
sg7
I876
sg8
I765
sa(dp329
g2
I642
sg3
F49.76525821596244
sg4
I1278
sg5
I1
sg6
I435
sg7
I876
sg8
I1278
sa(dp330
g2
I512
sg3
F53.36976320582878
sg4
I1098
sg5
I1
sg6
I93
sg7
I876
sg8
I1098
sa(dp331
g2
I928
sg3
F44.761904761904766
sg4
I1680
sg5
I1
sg6
I747
sg7
I876
sg8
I1680
sa(dp332
g2
I419
sg3
F48.84004884004884
sg4
I819
sg5
I1
sg6
I993
sg7
I876
sg8
I819
sa(dp333
g2
I500
sg3
F52.10727969348659
sg4
I1044
sg5
I1
sg6
I804
sg7
I876
sg8
I1044
sa(dp334
g2
I1061
sg3
F42.11674849972722
sg4
I1833
sg5
I1
sg6
I144
sg7
I876
sg8
I1833
sa(dp335
g2
I464
sg3
F51.96687370600414
sg4
I966
sg5
I1
sg6
I411
sg7
I876
sg8
I966
sa(dp336
g2
I677
sg3
F50.18395879323032
sg4
I1359
sg5
I1
sg6
I12
sg7
I876
sg8
I1359
sa(dp337
g2
I417
sg3
F51.736111111111114
sg4
I864
sg5
I1
sg6
I117
sg7
I876
sg8
I864
sa(dp338
g2
I417
sg3
F50.0
sg4
I834
sg5
I1
sg6
I1425
sg7
I876
sg8
I834
sa(dp339
g2
I1031
sg3
F42.04609331084879
sg4
I1779
sg5
I1
sg6
I12
sg7
I876
sg8
I1779
sa(dp340
g2
I479
sg3
F52.480158730158735
sg4
I1008
sg5
I1
sg6
I3396
sg7
I876
sg8
I1008
sa(dp341
g2
I1088
sg3
F41.41087775982768
sg4
I1857
sg5
I1
sg6
I1092
sg7
I876
sg8
I1857
sa(dp342
g2
I491
sg3
F53.104106972301814
sg4
I1047
sg5
I1
sg6
I366
sg7
I876
sg8
I1047
sa(dp343
g2
I591
sg3
F51.5970515970516
sg4
I1221
sg5
I1
sg6
I48
sg7
I876
sg8
I1221
sa(dp344
g2
I644
sg3
F50.07751937984496
sg4
I1290
sg5
I1
sg6
I291
sg7
I876
sg8
I1290
sa(dp345
g2
I2591
sg3
F25.223665223665225
sg4
I3465
sg5
I1
sg6
I1014
sg7
I876
sg8
I3465
sa(dp346
g2
I409
sg3
F45.46666666666667
sg4
I750
sg5
I1
sg6
I96
sg7
I876
sg8
I750
sa(dp347
g2
I413
sg3
F41.168091168091166
sg4
I702
sg5
I1
sg6
I804
sg7
I876
sg8
I702
sa(dp348
g2
I421
sg3
F47.44069912609238
sg4
I801
sg5
I1
sg6
I2097
sg7
I876
sg8
I801
sa(dp349
g2
I407
sg3
F47.820512820512825
sg4
I780
sg5
I1
sg6
I153
sg7
I876
sg8
I780
sa(dp350
g2
I410
sg3
F48.03548795944233
sg4
I789
sg5
I1
sg6
I576
sg7
I876
sg8
I789
sa(dp351
g2
I444
sg3
F50.83056478405316
sg4
I903
sg5
I1
sg6
I1503
sg7
I876
sg8
I903
sa(dp352
g2
I571
sg3
F51.936026936026934
sg4
I1188
sg5
I1
sg6
I195
sg7
I876
sg8
I1188
sa(dp353
g2
I451
sg3
F53.88548057259713
sg4
I978
sg5
I1
sg6
I234
sg7
I876
sg8
I978
sa(dp354
g2
I843
sg3
F46.37404580152672
sg4
I1572
sg5
I1
sg6
I354
sg7
I876
sg8
I1572
sa(dp355
g2
I425
sg3
F48.856799037304455
sg4
I831
sg5
I1
sg6
I255
sg7
I876
sg8
I831
sa(dp356
g2
I449
sg3
F52.33545647558386
sg4
I942
sg5
I1
sg6
I24
sg7
I876
sg8
I942
sa(dp357
g2
I404
sg3
F45.25745257452575
sg4
I738
sg5
I1
sg6
I21
sg7
I876
sg8
I738
sa(dp358
g2
I666
sg3
F50.0
sg4
I1332
sg5
I1
sg6
I63
sg7
I876
sg8
I1332
sa(dp359
g2
I438
sg3
F52.28758169934641
sg4
I918
sg5
I1
sg6
I60
sg7
I876
sg8
I918
sa(dp360
g2
I404
sg3
F45.69892473118279
sg4
I744
sg5
I1
sg6
I636
sg7
I876
sg8
I744
sa(dp361
g2
I830
sg3
F46.382428940568474
sg4
I1548
sg5
I1
sg6
I48
sg7
I876
sg8
I1548
sa(dp362
g2
I441
sg3
F53.03514376996805
sg4
I939
sg5
I1
sg6
I864
sg7
I876
sg8
I939
sa(dp363
g2
I566
sg3
F51.122625215889464
sg4
I1158
sg5
I1
sg6
I441
sg7
I876
sg8
I1158
sa(dp364
g2
I404
sg3
F42.93785310734463
sg4
I708
sg5
I1
sg6
I78
sg7
I876
sg8
I708
sa(dp365
g2
I896
sg3
F44.69135802469136
sg4
I1620
sg5
I1
sg6
I513
sg7
I876
sg8
I1620
sa(dp366
g2
I779
sg3
F47.85809906291834
sg4
I1494
sg5
I1
sg6
I102
sg7
I876
sg8
I1494
sa(dp367
g2
I452
sg3
F51.3978494623656
sg4
I930
sg5
I1
sg6
I2745
sg7
I876
sg8
I930
sa(dp368
g2
I732
sg3
F48.30508474576271
sg4
I1416
sg5
I1
sg6
I42
sg7
I876
sg8
I1416
sa(dp369
g2
I608
sg3
F51.97472353870458
sg4
I1266
sg5
I1
sg6
I648
sg7
I876
sg8
I1266
sa(dp370
g2
I408
sg3
F50.36496350364964
sg4
I822
sg5
I1
sg6
I780
sg7
I876
sg8
I822
sa(dp371
g2
I1102
sg3
F41.6931216931217
sg4
I1890
sg5
I1
sg6
I750
sg7
I876
sg8
I1890
sa(dp372
g2
I1687
sg3
F32.895783611774064
sg4
I2514
sg5
I1
sg6
I189
sg7
I876
sg8
I2514
sa(dp373
g2
I416
sg3
F48.831488314883146
sg4
I813
sg5
I1
sg6
I249
sg7
I876
sg8
I813
sa(dp374
g2
I680
sg3
F49.74131559497413
sg4
I1353
sg5
I1
sg6
I396
sg7
I876
sg8
I1353
sa(dp375
g2
I421
sg3
F50.05931198102017
sg4
I843
sg5
I1
sg6
I138
sg7
I876
sg8
I843
sa(dp376
g2
I494
sg3
F52.81757402101241
sg4
I1047
sg5
I1
sg6
I2544
sg7
I876
sg8
I1047
sa(dp377
g2
I409
sg3
F44.579945799457995
sg4
I738
sg5
I1
sg6
I699
sg7
I876
sg8
I738
sa(dp378
g2
I695
sg3
F49.63768115942029
sg4
I1380
sg5
I1
sg6
I171
sg7
I876
sg8
I1380
sa(dp379
g2
I404
sg3
F49.373433583959894
sg4
I798
sg5
I1
sg6
I318
sg7
I876
sg8
I798
sa(dp380
g2
I413
sg3
F42.638888888888886
sg4
I720
sg5
I1
sg6
I63
sg7
I876
sg8
I720
sa(dp381
g2
I706
sg3
F49.17206623470122
sg4
I1389
sg5
I1
sg6
I882
sg7
I876
sg8
I1389
sa(dp382
g2
I1168
sg3
F40.1025641025641
sg4
I1950
sg5
I1
sg6
I162
sg7
I876
sg8
I1950
sa(dp383
g2
I427
sg3
F51.42207053469852
sg4
I879
sg5
I1
sg6
I36
sg7
I876
sg8
I879
sa(dp384
g2
I406
sg3
F44.761904761904766
sg4
I735
sg5
I1
sg6
I24
sg7
I876
sg8
I735
sa(dp385
g2
I415
sg3
F48.76543209876543
sg4
I810
sg5
I1
sg6
I285
sg7
I876
sg8
I810
sa(dp386
g2
I456
sg3
F51.59235668789809
sg4
I942
sg5
I1
sg6
I30
sg7
I876
sg8
I942
sa(dp387
g2
I518
sg3
F52.737226277372265
sg4
I1096
sg5
I1
sg6
I477
sg7
I876
sg8
I-1
sa(dp388
g2
I781
sg3
F47.40740740740741
sg4
I1485
sg5
I0
sg6
I144
sg7
I876
sg8
I1485
sa(dp389
g2
I430
sg3
F52.06243032329989
sg4
I897
sg5
I0
sg6
I141
sg7
I876
sg8
I897
sa(dp390
g2
I459
sg3
F54.054054054054056
sg4
I999
sg5
I0
sg6
I342
sg7
I876
sg8
I999
sa(dp391
g2
I1802
sg3
F32.20466516177577
sg4
I2658
sg5
I0
sg6
I3717
sg7
I876
sg8
I2658
sa(dp392
g2
I3148
sg3
F21.749937857320408
sg4
I4023
sg5
I0
sg6
I738
sg7
I876
sg8
I4023
sa(dp393
g2
I725
sg3
F49.0154711673699
sg4
I1422
sg5
I0
sg6
I63
sg7
I876
sg8
I1422
sa(dp394
g2
I1479
sg3
F35.80729166666667
sg4
I2304
sg5
I0
sg6
I1002
sg7
I876
sg8
I2304
sa(dp395
g2
I433
sg3
F49.88425925925926
sg4
I864
sg5
I0
sg6
I102
sg7
I876
sg8
I864
sa(dp396
g2
I801
sg3
F47.023809523809526
sg4
I1512
sg5
I0
sg6
I120
sg7
I876
sg8
I1512
sa(dp397
g2
I414
sg3
F45.23809523809524
sg4
I756
sg5
I0
sg6
I1569
sg7
I876
sg8
I756
sa(dp398
g2
I490
sg3
F53.19961795606495
sg4
I1047
sg5
I0
sg6
I312
sg7
I876
sg8
I1047
sa(dp399
g2
I1171
sg3
F40.4979674796748
sg4
I1968
sg5
I0
sg6
I483
sg7
I876
sg8
I1968
sa(dp400
g2
I411
sg3
F49.07063197026022
sg4
I807
sg5
I0
sg6
I18
sg7
I876
sg8
I807
sa(dp401
g2
I833
sg3
F46.18863049095607
sg4
I1548
sg5
I0
sg6
I237
sg7
I876
sg8
I1548
sa(dp402
g2
I409
sg3
F51.13500597371565
sg4
I837
sg5
I0
sg6
I2589
sg7
I876
sg8
I837
sa(dp403
g2
I2032
sg3
F29.810017271157168
sg4
I2895
sg5
I0
sg6
I45
sg7
I876
sg8
I2895
sa(dp404
g2
I609
sg3
F50.96618357487923
sg4
I1242
sg5
I0
sg6
I1227
sg7
I876
sg8
I1242
sa(dp405
g2
I1107
sg3
F41.24203821656051
sg4
I1884
sg5
I0
sg6
I72
sg7
I876
sg8
I1884
sa(dp406
g2
I1182
sg3
F40.03044140030441
sg4
I1971
sg5
I0
sg6
I1317
sg7
I876
sg8
I1971
sa(dp407
g2
I515
sg3
F53.224341507720254
sg4
I1101
sg5
I0
sg6
I45
sg7
I876
sg8
I1101
sa(dp408
g2
I530
sg3
F53.01418439716312
sg4
I1128
sg5
I0
sg6
I630
sg7
I876
sg8
I1128
sa(dp409
g2
I3136
sg3
F21.81500872600349
sg4
I4011
sg5
I0
sg6
I4227
sg7
I876
sg8
I4011
sa(dp410
g2
I411
sg3
F47.70992366412214
sg4
I786
sg5
I0
sg6
I744
sg7
I876
sg8
I786
sa(dp411
g2
I463
sg3
F52.0703933747412
sg4
I966
sg5
I0
sg6
I204
sg7
I876
sg8
I966
sa(dp412
g2
I1456
sg3
F35.97185576077397
sg4
I2274
sg5
I0
sg6
I69
sg7
I876
sg8
I2274
sa(dp413
g2
I454
sg3
F53.002070393374744
sg4
I966
sg5
I0
sg6
I948
sg7
I876
sg8
I966
sa(dp414
g2
I3514
sg3
F19.936204146730464
sg4
I4389
sg5
I0
sg6
I564
sg7
I876
sg8
I4389
sa(dp415
g2
I2701
sg3
F24.46868008948546
sg4
I3576
sg5
I0
sg6
I435
sg7
I876
sg8
I3576
sa(dp416
g2
I1060
sg3
F42.359978249048396
sg4
I1839
sg5
I0
sg6
I36
sg7
I876
sg8
I1839
sa(dp417
g2
I418
sg3
F47.42138364779874
sg4
I795
sg5
I0
sg6
I15
sg7
I876
sg8
I795
sa(dp418
g2
I976
sg3
F43.713956170703575
sg4
I1734
sg5
I0
sg6
I765
sg7
I876
sg8
I1734
sa(dp419
g2
I2060
sg3
F29.572649572649574
sg4
I2925
sg5
I0
sg6
I315
sg7
I876
sg8
I2925
sa(dp420
g2
I3199
sg3
F21.477663230240548
sg4
I4074
sg5
I0
sg6
I3828
sg7
I876
sg8
I4074
sa(dp421
g2
I4120
sg3
F17.51751751751752
sg4
I4995
sg5
I0
sg6
I924
sg7
I876
sg8
I4995
sa(dp422
g2
I559
sg3
F51.6017316017316
sg4
I1155
sg5
I0
sg6
I78
sg7
I876
sg8
I1155
sa(dp423
g2
I441
sg3
F50.671140939597315
sg4
I894
sg5
I0
sg6
I2001
sg7
I876
sg8
I894
sa(dp424
g2
I466
sg3
F52.92929292929293
sg4
I990
sg5
I0
sg6
I444
sg7
I876
sg8
I990
sa(dp425
g2
I1384
sg3
F36.890104879160965
sg4
I2193
sg5
I0
sg6
I1473
sg7
I876
sg8
I2193
sa(dp426
g2
I990
sg3
F43.29896907216495
sg4
I1746
sg5
I0
sg6
I651
sg7
I876
sg8
I1746
sa(dp427
g2
I448
sg3
F52.13675213675214
sg4
I936
sg5
I0
sg6
I180
sg7
I876
sg8
I936
sa(dp428
g2
I449
sg3
F53.519668737060044
sg4
I966
sg5
I0
sg6
I978
sg7
I876
sg8
I966
sa(dp429
g2
I470
sg3
F52.235772357723576
sg4
I984
sg5
I0
sg6
I318
sg7
I876
sg8
I984
sa(dp430
g2
I1125
sg3
F41.13029827315541
sg4
I1911
sg5
I0
sg6
I276
sg7
I876
sg8
I1911
sa(dp431
g2
I608
sg3
F51.28205128205128
sg4
I1248
sg5
I0
sg6
I450
sg7
I876
sg8
I1248
sa(dp432
g2
I538
sg3
F52.04991087344028
sg4
I1122
sg5
I0
sg6
I9
sg7
I876
sg8
I1122
sa(dp433
g2
I415
sg3
F48.18976279650437
sg4
I801
sg5
I0
sg6
I78
sg7
I876
sg8
I801
sa(dp434
g2
I669
sg3
F50.44444444444445
sg4
I1350
sg5
I0
sg6
I276
sg7
I876
sg8
I1350
sa(dp435
g2
I787
sg3
F47.53333333333333
sg4
I1500
sg5
I0
sg6
I261
sg7
I876
sg8
I1500
sa(dp436
g2
I2458
sg3
F26.186186186186188
sg4
I3330
sg5
I0
sg6
I3651
sg7
I876
sg8
I3330
sa(dp437
g2
I710
sg3
F48.88408927285817
sg4
I1389
sg5
I0
sg6
I51
sg7
I876
sg8
I1389
sa(dp438
g2
I618
sg3
F51.41509433962265
sg4
I1272
sg5
I0
sg6
I6
sg7
I876
sg8
I1272
sa(dp439
g2
I677
sg3
F49.851851851851855
sg4
I1350
sg5
I0
sg6
I975
sg7
I876
sg8
I1350
sa(dp440
g2
I733
sg3
F48.452883263009845
sg4
I1422
sg5
I0
sg6
I1359
sg7
I876
sg8
I1422
sa(dp441
g2
I2469
sg3
F26.05570530098832
sg4
I3339
sg5
I0
sg6
I159
sg7
I876
sg8
I3339
sa(dp442
g2
I1589
sg3
F34.36596447748864
sg4
I2421
sg5
I0
sg6
I15
sg7
I876
sg8
I2421
sa(dp443
g2
I793
sg3
F47.13333333333333
sg4
I1500
sg5
I0
sg6
I174
sg7
I876
sg8
I1500
sa(dp444
g2
I578
sg3
F52.66175266175266
sg4
I1221
sg5
I0
sg6
I210
sg7
I876
sg8
I1221
sa(dp445
g2
I2531
sg3
F25.66813509544787
sg4
I3405
sg5
I0
sg6
I6
sg7
I876
sg8
I3405
sa(dp446
g2
I408
sg3
F46.666666666666664
sg4
I765
sg5
I0
sg6
I4926
sg7
I876
sg8
I765
sa(dp447
g2
I467
sg3
F52.540650406504064
sg4
I984
sg5
I0
sg6
I6
sg7
I876
sg8
I984
sa(dp448
g2
I908
sg3
F45.169082125603865
sg4
I1656
sg5
I0
sg6
I270
sg7
I876
sg8
I1656
sa(dp449
g2
I1396
sg3
F36.86114880144731
sg4
I2211
sg5
I0
sg6
I153
sg7
I876
sg8
I2211
sa(dp450
g2
I1117
sg3
F41.457023060796644
sg4
I1908
sg5
I0
sg6
I105
sg7
I876
sg8
I1908
sa(dp451
g2
I909
sg3
F45.108695652173914
sg4
I1656
sg5
I0
sg6
I111
sg7
I876
sg8
I1656
sa(dp452
g2
I408
sg3
F50.54545454545455
sg4
I825
sg5
I0
sg6
I1134
sg7
I876
sg8
I825
sa(dp453
g2
I409
sg3
F48.93882646691635
sg4
I801
sg5
I0
sg6
I711
sg7
I876
sg8
I801
sa(dp454
g2
I1090
sg3
F41.58628081457664
sg4
I1866
sg5
I0
sg6
I3294
sg7
I876
sg8
I1866
sa(dp455
g2
I583
sg3
F52.016460905349795
sg4
I1215
sg5
I0
sg6
I1587
sg7
I876
sg8
I1215
sa(dp456
g2
I423
sg3
F51.041666666666664
sg4
I864
sg5
I0
sg6
I462
sg7
I876
sg8
I864
sa(dp457
g2
I455
sg3
F52.604166666666664
sg4
I960
sg5
I1
sg6
I771
sg7
I876
sg8
I960
sa(dp458
g2
I978
sg3
F43.79310344827586
sg4
I1740
sg5
I1
sg6
I4779
sg7
I876
sg8
I1740
sa(dp459
g2
I1525
sg3
F34.91250533504054
sg4
I2343
sg5
I1
sg6
I102
sg7
I876
sg8
I2343
sa(dp460
g2
I1003
sg3
F43.333333333333336
sg4
I1770
sg5
I1
sg6
I2178
sg7
I876
sg8
I1770
sa(dp461
g2
I683
sg3
F49.06785980611484
sg4
I1341
sg5
I1
sg6
I15
sg7
I876
sg8
I1341
sa(dp462
g2
I445
sg3
F50.05611672278339
sg4
I891
sg5
I1
sg6
I45
sg7
I876
sg8
I891
sa(dp463
g2
I504
sg3
F51.445086705202314
sg4
I1038
sg5
I1
sg6
I171
sg7
I876
sg8
I1038
sa(dp464
g2
I426
sg3
F49.82332155477032
sg4
I849
sg5
I1
sg6
I834
sg7
I876
sg8
I849
sa(dp465
g2
I560
sg3
F51.76571920757967
sg4
I1161
sg5
I1
sg6
I1101
sg7
I876
sg8
I1161
sa(dp466
g2
I974
sg3
F43.63425925925926
sg4
I1728
sg5
I1
sg6
I174
sg7
I876
sg8
I1728
sa(dp467
g2
I480
sg3
F53.75722543352601
sg4
I1038
sg5
I1
sg6
I36
sg7
I876
sg8
I1038
sa(dp468
g2
I524
sg3
F52.53623188405797
sg4
I1104
sg5
I1
sg6
I18
sg7
I876
sg8
I1104
sa(dp469
g2
I498
sg3
F51.17647058823529
sg4
I1020
sg5
I1
sg6
I45
sg7
I876
sg8
I1020
sa(dp470
g2
I1412
sg3
F36.56783468104223
sg4
I2226
sg5
I1
sg6
I516
sg7
I876
sg8
I2226
sa(dp471
g2
I1189
sg3
F39.858371269600404
sg4
I1977
sg5
I1
sg6
I15
sg7
I876
sg8
I1977
sa(dp472
g2
I415
sg3
F49.32844932844933
sg4
I819
sg5
I1
sg6
I1974
sg7
I876
sg8
I819
sa(dp473
g2
I789
sg3
F47.08249496981891
sg4
I1491
sg5
I1
sg6
I1716
sg7
I876
sg8
I1491
sa(dp474
g2
I1614
sg3
F34.229828850855746
sg4
I2454
sg5
I1
sg6
I2310
sg7
I876
sg8
I2454
sa(dp475
g2
I4996
sg3
F14.90376426503151
sg4
I5871
sg5
I1
sg6
I1704
sg7
I876
sg8
I5871
sa(dp476
g2
I6457
sg3
F11.933987997817786
sg4
I7332
sg5
I1
sg6
I267
sg7
I876
sg8
I7332
sa(dp477
g2
I664
sg3
F50.150150150150154
sg4
I1332
sg5
I1
sg6
I828
sg7
I876
sg8
I1332
sa(dp478
g2
I1023
sg3
F42.6890756302521
sg4
I1785
sg5
I1
sg6
I33
sg7
I876
sg8
I1785
sa(dp479
g2
I1335
sg3
F37.675070028011206
sg4
I2142
sg5
I1
sg6
I195
sg7
I876
sg8
I2142
sa(dp480
g2
I661
sg3
F50.927988121752044
sg4
I1347
sg5
I1
sg6
I1113
sg7
I876
sg8
I1347
sa(dp481
g2
I1994
sg3
F30.25533403287863
sg4
I2859
sg5
I1
sg6
I3696
sg7
I876
sg8
I2859
sa(dp482
g2
I442
sg3
F51.53508771929825
sg4
I912
sg5
I1
sg6
I126
sg7
I876
sg8
I912
sa(dp483
g2
I426
sg3
F48.36363636363637
sg4
I825
sg5
I1
sg6
I591
sg7
I876
sg8
I825
sa(dp484
g2
I1002
sg3
F43.48561759729272
sg4
I1773
sg5
I1
sg6
I933
sg7
I876
sg8
I1773
sa(dp485
g2
I447
sg3
F51.7799352750809
sg4
I927
sg5
I1
sg6
I123
sg7
I876
sg8
I927
sa(dp486
g2
I2504
sg3
F25.807407407407407
sg4
I3375
sg5
I1
sg6
I3228
sg7
I876
sg8
I3375
sa(dp487
g2
I423
sg3
F39.743589743589745
sg4
I702
sg5
I1
sg6
I57
sg7
I876
sg8
I702
sa(dp488
g2
I752
sg3
F47.6687543493389
sg4
I1437
sg5
I1
sg6
I1785
sg7
I876
sg8
I1437
sa(dp489
g2
I440
sg3
F53.58649789029536
sg4
I948
sg5
I1
sg6
I1008
sg7
I876
sg8
I948
sa(dp490
g2
I1158
sg3
F39.968895800933126
sg4
I1929
sg5
I1
sg6
I360
sg7
I876
sg8
I1929
sa(dp491
g2
I547
sg3
F52.64069264069264
sg4
I1155
sg5
I1
sg6
I120
sg7
I876
sg8
I1155
sa(dp492
g2
I1722
sg3
F32.94392523364486
sg4
I2568
sg5
I1
sg6
I2538
sg7
I876
sg8
I2568
sa(dp493
g2
I724
sg3
F48.3226266952177
sg4
I1401
sg5
I1
sg6
I27
sg7
I876
sg8
I1401
sa(dp494
g2
I677
sg3
F50.073746312684364
sg4
I1356
sg5
I1
sg6
I24
sg7
I876
sg8
I1356
sa(dp495
g2
I424
sg3
F51.598173515981735
sg4
I876
sg5
I1
sg6
I1704
sg7
I876
sg8
I876
sa(dp496
g2
I971
sg3
F43.61207897793264
sg4
I1722
sg5
I1
sg6
I690
sg7
I876
sg8
I1722
sa(dp497
g2
I603
sg3
F51.213592233009706
sg4
I1236
sg5
I1
sg6
I444
sg7
I876
sg8
I1236
sa(dp498
g2
I709
sg3
F49.17562724014337
sg4
I1395
sg5
I1
sg6
I561
sg7
I876
sg8
I1395
sa(dp499
g2
I421
sg3
F47.24310776942356
sg4
I798
sg5
I1
sg6
I198
sg7
I876
sg8
I798
sa(dp500
g2
I520
sg3
F52.770208900999094
sg4
I1101
sg5
I1
sg6
I5361
sg7
I876
sg8
I1101
sa(dp501
g2
I412
sg3
F43.015214384508994
sg4
I723
sg5
I1
sg6
I489
sg7
I876
sg8
I723
sa(dp502
g2
I1660
sg3
F33.89088012743927
sg4
I2511
sg5
I1
sg6
I240
sg7
I876
sg8
I2511
sa(dp503
g2
I1900
sg3
F30.93420574336605
sg4
I2751
sg5
I1
sg6
I603
sg7
I876
sg8
I2751
sa(dp504
g2
I428
sg3
F52.28539576365663
sg4
I897
sg5
I1
sg6
I144
sg7
I876
sg8
I897
sa(dp505
g2
I1786
sg3
F32.194381169324224
sg4
I2634
sg5
I1
sg6
I51
sg7
I876
sg8
I2634
sa(dp506
g2
I444
sg3
F51.15511551155115
sg4
I909
sg5
I1
sg6
I27
sg7
I876
sg8
I909
sa(dp507
g2
I536
sg3
F51.8418688230009
sg4
I1113
sg5
I1
sg6
I738
sg7
I876
sg8
I1113
sa(dp508
g2
I481
sg3
F53.79442843419788
sg4
I1041
sg5
I1
sg6
I840
sg7
I876
sg8
I1041
sa(dp509
g2
I897
sg3
F44.935543278084715
sg4
I1629
sg5
I1
sg6
I1221
sg7
I876
sg8
I1629
sa(dp510
g2
I432
sg3
F48.014440433213
sg4
I831
sg5
I1
sg6
I342
sg7
I876
sg8
I831
sa(dp511
g2
I601
sg3
F50.53497942386831
sg4
I1215
sg5
I1
sg6
I357
sg7
I876
sg8
I1215
sa(dp512
g2
I437
sg3
F50.953984287317624
sg4
I891
sg5
I1
sg6
I1041
sg7
I876
sg8
I891
sa(dp513
g2
I2834
sg3
F23.570658036677454
sg4
I3708
sg5
I1
sg6
I2505
sg7
I876
sg8
I3708
sa(dp514
g2
I1877
sg3
F31.169783645031167
sg4
I2727
sg5
I1
sg6
I6
sg7
I876
sg8
I2727
sa(dp515
g2
I465
sg3
F50.63694267515923
sg4
I942
sg5
I1
sg6
I87
sg7
I876
sg8
I942
sa(dp516
g2
I466
sg3
F52.49745158002038
sg4
I981
sg5
I1
sg6
I705
sg7
I876
sg8
I981
sa(dp517
g2
I572
sg3
F52.09380234505863
sg4
I1194
sg5
I1
sg6
I147
sg7
I876
sg8
I1194
sa(dp518
g2
I414
sg3
F42.016806722689076
sg4
I714
sg5
I1
sg6
I501
sg7
I876
sg8
I714
sa(dp519
g2
I585
sg3
F51.61290322580645
sg4
I1209
sg5
I1
sg6
I282
sg7
I876
sg8
I1209
sa(dp520
g2
I546
sg3
F51.85185185185185
sg4
I1134
sg5
I1
sg6
I456
sg7
I876
sg8
I1134
sa(dp521
g2
I465
sg3
F51.410658307210035
sg4
I957
sg5
I1
sg6
I108
sg7
I876
sg8
I957
sa(dp522
g2
I419
sg3
F49.02676399026764
sg4
I822
sg5
I1
sg6
I9
sg7
I876
sg8
I822
sa(dp523
g2
I418
sg3
F45.35947712418301
sg4
I765
sg5
I1
sg6
I72
sg7
I876
sg8
I765
sa(dp524
g2
I540
sg3
F53.00261096605744
sg4
I1149
sg5
I1
sg6
I1374
sg7
I876
sg8
I1149
sa(dp525
g2
I619
sg3
F51.10584518167457
sg4
I1266
sg5
I1
sg6
I726
sg7
I876
sg8
I1266
sa(dp526
g2
I412
sg3
F46.1437908496732
sg4
I765
sg5
I1
sg6
I126
sg7
I876
sg8
I765
sa(dp527
g2
I1625
sg3
F34.34343434343434
sg4
I2475
sg5
I1
sg6
I171
sg7
I876
sg8
I2475
sa(dp528
g2
I478
sg3
F52.29540918163673
sg4
I1002
sg5
I1
sg6
I558
sg7
I876
sg8
I1002
sa(dp529
g2
I432
sg3
F49.29577464788733
sg4
I852
sg5
I1
sg6
I432
sg7
I876
sg8
I852
sa(dp530
g2
I2452
sg3
F26.233453670276774
sg4
I3324
sg5
I1
sg6
I1476
sg7
I876
sg8
I3324
sa(dp531
g2
I406
sg3
F44.53551912568306
sg4
I732
sg5
I1
sg6
I2784
sg7
I876
sg8
I732
sa(dp532
g2
I516
sg3
F52.74725274725275
sg4
I1092
sg5
I1
sg6
I597
sg7
I876
sg8
I1092
sa(dp533
g2
I411
sg3
F48.68913857677903
sg4
I801
sg5
I1
sg6
I213
sg7
I876
sg8
I801
sa(dp534
g2
I908
sg3
F44.56654456654457
sg4
I1638
sg5
I1
sg6
I738
sg7
I876
sg8
I1638
sa(dp535
g2
I465
sg3
F52.59938837920489
sg4
I981
sg5
I1
sg6
I27
sg7
I876
sg8
I981
sa(dp536
g2
I1221
sg3
F39.524517087667164
sg4
I2019
sg5
I1
sg6
I201
sg7
I876
sg8
I2019
sa(dp537
g2
I1503
sg3
F35.1875808538163
sg4
I2319
sg5
I1
sg6
I846
sg7
I876
sg8
I2319
sa(dp538
g2
I409
sg3
F43.19444444444444
sg4
I720
sg5
I1
sg6
I360
sg7
I876
sg8
I720
sa(dp539
g2
I784
sg3
F47.205387205387204
sg4
I1485
sg5
I1
sg6
I1263
sg7
I876
sg8
I1485
sa(dp540
g2
I1905
sg3
F30.903155603917305
sg4
I2757
sg5
I1
sg6
I477
sg7
I876
sg8
I2757
sa(dp541
g2
I449
sg3
F36.849507735583686
sg4
I711
sg5
I0
sg6
I141
sg7
I876
sg8
I711
sa(dp542
g2
I537
sg3
F49.43502824858757
sg4
I1062
sg5
I0
sg6
I99
sg7
I876
sg8
I1062
sa(dp543
g2
I406
sg3
F42.897327707454295
sg4
I711
sg5
I0
sg6
I294
sg7
I876
sg8
I711
sa(dp544
g2
I438
sg3
F51.006711409395976
sg4
I894
sg5
I0
sg6
I489
sg7
I876
sg8
I894
sa(dp545
g2
I849
sg3
F45.88910133843212
sg4
I1569
sg5
I0
sg6
I672
sg7
I876
sg8
I1569
sa(dp546
g2
I419
sg3
F51.16550116550117
sg4
I858
sg5
I0
sg6
I384
sg7
I876
sg8
I858
sa(dp547
g2
I555
sg3
F51.94805194805194
sg4
I1155
sg5
I0
sg6
I162
sg7
I876
sg8
I1155
sa(dp548
g2
I717
sg3
F48.712446351931334
sg4
I1398
sg5
I0
sg6
I87
sg7
I876
sg8
I1398
sa(dp549
g2
I411
sg3
F46.69260700389105
sg4
I771
sg5
I0
sg6
I654
sg7
I876
sg8
I771
sa(dp550
g2
I465
sg3
F53.17220543806647
sg4
I993
sg5
I0
sg6
I252
sg7
I876
sg8
I993
sa(dp551
g2
I624
sg3
F51.515151515151516
sg4
I1287
sg5
I0
sg6
I591
sg7
I876
sg8
I1287
sa(dp552
g2
I795
sg3
F46.57258064516129
sg4
I1488
sg5
I0
sg6
I789
sg7
I876
sg8
I1488
sa(dp553
g2
I419
sg3
F41.31652661064425
sg4
I714
sg5
I0
sg6
I84
sg7
I876
sg8
I714
sa(dp554
g2
I425
sg3
F46.94132334581773
sg4
I801
sg5
I0
sg6
I747
sg7
I876
sg8
I801
sa(dp555
g2
I445
sg3
F50.05611672278339
sg4
I891
sg5
I0
sg6
I339
sg7
I876
sg8
I891
sa(dp556
g2
I444
sg3
F51.633986928104584
sg4
I918
sg5
I0
sg6
I93
sg7
I876
sg8
I918
sa(dp557
g2
I937
sg3
F44.358669833729216
sg4
I1684
sg5
I0
sg6
I153
sg7
I876
sg8
I-1
sa(dp558
g2
I1135
sg3
F40.60701203558346
sg4
I1911
sg5
I0
sg6
I1356
sg7
I876
sg8
I1911
sa(dp559
g2
I477
sg3
F52.25225225225225
sg4
I999
sg5
I0
sg6
I420
sg7
I876
sg8
I999
sa(dp560
g2
I903
sg3
F45.07299270072993
sg4
I1644
sg5
I0
sg6
I591
sg7
I876
sg8
I1644
sa(dp561
g2
I411
sg3
F49.63235294117647
sg4
I816
sg5
I0
sg6
I1518
sg7
I876
sg8
I816
sa(dp562
g2
I466
sg3
F52.642276422764226
sg4
I984
sg5
I0
sg6
I63
sg7
I876
sg8
I984
sa(dp563
g2
I420
sg3
F50.53003533568905
sg4
I849
sg5
I0
sg6
I177
sg7
I876
sg8
I849
sa(dp564
g2
I406
sg3
F43.84508990318119
sg4
I723
sg5
I1
sg6
I75
sg7
I876
sg8
I723
sa(dp565
g2
I453
sg3
F51.29032258064517
sg4
I930
sg5
I1
sg6
I135
sg7
I876
sg8
I930
sa(dp566
g2
I455
sg3
F50.916936353829556
sg4
I927
sg5
I1
sg6
I153
sg7
I876
sg8
I927
sa(dp567
g2
I407
sg3
F47.61904761904761
sg4
I777
sg5
I1
sg6
I102
sg7
I876
sg8
I777
sa(dp568
g2
I842
sg3
F46.539682539682545
sg4
I1575
sg5
I1
sg6
I24
sg7
I876
sg8
I1575
sa(dp569
g2
I507
sg3
F52.259887005649716
sg4
I1062
sg5
I1
sg6
I150
sg7
I876
sg8
I1062
sa(dp570
g2
I1026
sg3
F42.904841402337226
sg4
I1797
sg5
I1
sg6
I120
sg7
I876
sg8
I1797
sa(dp571
g2
I807
sg3
F46.837944664031625
sg4
I1518
sg5
I1
sg6
I12
sg7
I876
sg8
I1518
sa(dp572
g2
I415
sg3
F43.766937669376695
sg4
I738
sg5
I1
sg6
I222
sg7
I876
sg8
I738
sa(dp573
g2
I440
sg3
F49.59908361970218
sg4
I873
sg5
I1
sg6
I576
sg7
I876
sg8
I873
sa(dp574
g2
I717
sg3
F48.712446351931334
sg4
I1398
sg5
I1
sg6
I489
sg7
I876
sg8
I1398
sa(dp575
g2
I550
sg3
F51.88101487314086
sg4
I1143
sg5
I1
sg6
I18
sg7
I876
sg8
I1143
sa(dp576
g2
I673
sg3
F49.81357196122297
sg4
I1341
sg5
I1
sg6
I411
sg7
I876
sg8
I1341
sa(dp577
g2
I582
sg3
F51.741293532338304
sg4
I1206
sg5
I1
sg6
I132
sg7
I876
sg8
I1206
sa(dp578
g2
I628
sg3
F50.51221434200157
sg4
I1269
sg5
I1
sg6
I153
sg7
I876
sg8
I1269
sa(dp579
g2
I968
sg3
F43.98148148148148
sg4
I1728
sg5
I1
sg6
I411
sg7
I876
sg8
I1728
sa(dp580
g2
I465
sg3
F54.142011834319526
sg4
I1014
sg5
I1
sg6
I156
sg7
I876
sg8
I1014
sa(dp581
g2
I782
sg3
F47.233468286099864
sg4
I1482
sg5
I1
sg6
I420
sg7
I876
sg8
I1482
sa(dp582
g2
I519
sg3
F51.94444444444445
sg4
I1080
sg5
I1
sg6
I60
sg7
I876
sg8
I1080
sa.